(dp0
S'bins'
p1
(lp2
(dp3
S'cut'
p4
S'Jpsi_m1_pt > 2.8 && Jpsi_m2_pt > 2.8 && abs(Jpsi_m1_eta) < 2.5 && abs(Jpsi_m2_eta) < 2.5 && Jpsi_fit_pt > 4.9 && Jpsi_m1_trgobj_pt != Jpsi_m2_trgobj_pt && abs(Jpsi_m2_eta) >= 0.000000 && abs(Jpsi_m2_eta) < 2.600000 && Jpsi_m2_pt >= 2.900000 && Jpsi_m2_pt < 3.000000'
p5
sS'name'
p6
S'bin00_abs(Jpsi_m2_eta)_0p00To2p60_Jpsi_m2_pt_2p90To3p00'
p7
sS'vars'
p8
(dp9
S'Jpsi_m2_pt'
p10
(dp11
S'max'
p12
F3.0
sS'min'
p13
F2.9
ssS'abs(Jpsi_m2_eta)'
p14
(dp15
g12
F2.6
sg13
I0
sssS'title'
p16
S'; 0.000 < abs(Jpsi_m2_eta) < 2.600; 2.900 < Jpsi_m2_pt < 3.000'
p17
sa(dp18
g4
S'Jpsi_m1_pt > 2.8 && Jpsi_m2_pt > 2.8 && abs(Jpsi_m1_eta) < 2.5 && abs(Jpsi_m2_eta) < 2.5 && Jpsi_fit_pt > 4.9 && Jpsi_m1_trgobj_pt != Jpsi_m2_trgobj_pt && abs(Jpsi_m2_eta) >= 0.000000 && abs(Jpsi_m2_eta) < 2.600000 && Jpsi_m2_pt >= 3.000000 && Jpsi_m2_pt < 3.100000'
p19
sg6
S'bin01_abs(Jpsi_m2_eta)_0p00To2p60_Jpsi_m2_pt_3p00To3p10'
p20
sg8
(dp21
g10
(dp22
g12
F3.1
sg13
F3.0
ssg14
(dp23
g12
F2.6
sg13
I0
sssg16
S'; 0.000 < abs(Jpsi_m2_eta) < 2.600; 3.000 < Jpsi_m2_pt < 3.100'
p24
sa(dp25
g4
S'Jpsi_m1_pt > 2.8 && Jpsi_m2_pt > 2.8 && abs(Jpsi_m1_eta) < 2.5 && abs(Jpsi_m2_eta) < 2.5 && Jpsi_fit_pt > 4.9 && Jpsi_m1_trgobj_pt != Jpsi_m2_trgobj_pt && abs(Jpsi_m2_eta) >= 0.000000 && abs(Jpsi_m2_eta) < 2.600000 && Jpsi_m2_pt >= 3.100000 && Jpsi_m2_pt < 3.200000'
p26
sg6
S'bin02_abs(Jpsi_m2_eta)_0p00To2p60_Jpsi_m2_pt_3p10To3p20'
p27
sg8
(dp28
g10
(dp29
g12
F3.2
sg13
F3.1
ssg14
(dp30
g12
F2.6
sg13
I0
sssg16
S'; 0.000 < abs(Jpsi_m2_eta) < 2.600; 3.100 < Jpsi_m2_pt < 3.200'
p31
sa(dp32
g4
S'Jpsi_m1_pt > 2.8 && Jpsi_m2_pt > 2.8 && abs(Jpsi_m1_eta) < 2.5 && abs(Jpsi_m2_eta) < 2.5 && Jpsi_fit_pt > 4.9 && Jpsi_m1_trgobj_pt != Jpsi_m2_trgobj_pt && abs(Jpsi_m2_eta) >= 0.000000 && abs(Jpsi_m2_eta) < 2.600000 && Jpsi_m2_pt >= 3.200000 && Jpsi_m2_pt < 3.500000'
p33
sg6
S'bin03_abs(Jpsi_m2_eta)_0p00To2p60_Jpsi_m2_pt_3p20To3p50'
p34
sg8
(dp35
g10
(dp36
g12
F3.5
sg13
F3.2
ssg14
(dp37
g12
F2.6
sg13
I0
sssg16
S'; 0.000 < abs(Jpsi_m2_eta) < 2.600; 3.200 < Jpsi_m2_pt < 3.500'
p38
sa(dp39
g4
S'Jpsi_m1_pt > 2.8 && Jpsi_m2_pt > 2.8 && abs(Jpsi_m1_eta) < 2.5 && abs(Jpsi_m2_eta) < 2.5 && Jpsi_fit_pt > 4.9 && Jpsi_m1_trgobj_pt != Jpsi_m2_trgobj_pt && abs(Jpsi_m2_eta) >= 0.000000 && abs(Jpsi_m2_eta) < 2.600000 && Jpsi_m2_pt >= 3.500000 && Jpsi_m2_pt < 4.000000'
p40
sg6
S'bin04_abs(Jpsi_m2_eta)_0p00To2p60_Jpsi_m2_pt_3p50To4p00'
p41
sg8
(dp42
g10
(dp43
g12
F4.0
sg13
F3.5
ssg14
(dp44
g12
F2.6
sg13
I0
sssg16
S'; 0.000 < abs(Jpsi_m2_eta) < 2.600; 3.500 < Jpsi_m2_pt < 4.000'
p45
sa(dp46
g4
S'Jpsi_m1_pt > 2.8 && Jpsi_m2_pt > 2.8 && abs(Jpsi_m1_eta) < 2.5 && abs(Jpsi_m2_eta) < 2.5 && Jpsi_fit_pt > 4.9 && Jpsi_m1_trgobj_pt != Jpsi_m2_trgobj_pt && abs(Jpsi_m2_eta) >= 0.000000 && abs(Jpsi_m2_eta) < 2.600000 && Jpsi_m2_pt >= 4.000000 && Jpsi_m2_pt < 6.000000'
p47
sg6
S'bin05_abs(Jpsi_m2_eta)_0p00To2p60_Jpsi_m2_pt_4p00To6p00'
p48
sg8
(dp49
g10
(dp50
g12
F6.0
sg13
F4.0
ssg14
(dp51
g12
F2.6
sg13
I0
sssg16
S'; 0.000 < abs(Jpsi_m2_eta) < 2.600; 4.000 < Jpsi_m2_pt < 6.000'
p52
sa(dp53
g4
S'Jpsi_m1_pt > 2.8 && Jpsi_m2_pt > 2.8 && abs(Jpsi_m1_eta) < 2.5 && abs(Jpsi_m2_eta) < 2.5 && Jpsi_fit_pt > 4.9 && Jpsi_m1_trgobj_pt != Jpsi_m2_trgobj_pt && abs(Jpsi_m2_eta) >= 0.000000 && abs(Jpsi_m2_eta) < 2.600000 && Jpsi_m2_pt >= 6.000000 && Jpsi_m2_pt < 7.000000'
p54
sg6
S'bin06_abs(Jpsi_m2_eta)_0p00To2p60_Jpsi_m2_pt_6p00To7p00'
p55
sg8
(dp56
g10
(dp57
g12
F7.0
sg13
F6.0
ssg14
(dp58
g12
F2.6
sg13
I0
sssg16
S'; 0.000 < abs(Jpsi_m2_eta) < 2.600; 6.000 < Jpsi_m2_pt < 7.000'
p59
sa(dp60
g4
S'Jpsi_m1_pt > 2.8 && Jpsi_m2_pt > 2.8 && abs(Jpsi_m1_eta) < 2.5 && abs(Jpsi_m2_eta) < 2.5 && Jpsi_fit_pt > 4.9 && Jpsi_m1_trgobj_pt != Jpsi_m2_trgobj_pt && abs(Jpsi_m2_eta) >= 0.000000 && abs(Jpsi_m2_eta) < 2.600000 && Jpsi_m2_pt >= 7.000000 && Jpsi_m2_pt < 8.000000'
p61
sg6
S'bin07_abs(Jpsi_m2_eta)_0p00To2p60_Jpsi_m2_pt_7p00To8p00'
p62
sg8
(dp63
g10
(dp64
g12
F8.0
sg13
F7.0
ssg14
(dp65
g12
F2.6
sg13
I0
sssg16
S'; 0.000 < abs(Jpsi_m2_eta) < 2.600; 7.000 < Jpsi_m2_pt < 8.000'
p66
sa(dp67
g4
S'Jpsi_m1_pt > 2.8 && Jpsi_m2_pt > 2.8 && abs(Jpsi_m1_eta) < 2.5 && abs(Jpsi_m2_eta) < 2.5 && Jpsi_fit_pt > 4.9 && Jpsi_m1_trgobj_pt != Jpsi_m2_trgobj_pt && abs(Jpsi_m2_eta) >= 0.000000 && abs(Jpsi_m2_eta) < 2.600000 && Jpsi_m2_pt >= 8.000000 && Jpsi_m2_pt < 9.000000'
p68
sg6
S'bin08_abs(Jpsi_m2_eta)_0p00To2p60_Jpsi_m2_pt_8p00To9p00'
p69
sg8
(dp70
g10
(dp71
g12
F9.0
sg13
F8.0
ssg14
(dp72
g12
F2.6
sg13
I0
sssg16
S'; 0.000 < abs(Jpsi_m2_eta) < 2.600; 8.000 < Jpsi_m2_pt < 9.000'
p73
sa(dp74
g4
S'Jpsi_m1_pt > 2.8 && Jpsi_m2_pt > 2.8 && abs(Jpsi_m1_eta) < 2.5 && abs(Jpsi_m2_eta) < 2.5 && Jpsi_fit_pt > 4.9 && Jpsi_m1_trgobj_pt != Jpsi_m2_trgobj_pt && abs(Jpsi_m2_eta) >= 0.000000 && abs(Jpsi_m2_eta) < 2.600000 && Jpsi_m2_pt >= 9.000000 && Jpsi_m2_pt < 10.000000'
p75
sg6
S'bin09_abs(Jpsi_m2_eta)_0p00To2p60_Jpsi_m2_pt_9p00To10p00'
p76
sg8
(dp77
g10
(dp78
g12
F10.0
sg13
F9.0
ssg14
(dp79
g12
F2.6
sg13
I0
sssg16
S'; 0.000 < abs(Jpsi_m2_eta) < 2.600; 9.000 < Jpsi_m2_pt < 10.000'
p80
sa(dp81
g4
S'Jpsi_m1_pt > 2.8 && Jpsi_m2_pt > 2.8 && abs(Jpsi_m1_eta) < 2.5 && abs(Jpsi_m2_eta) < 2.5 && Jpsi_fit_pt > 4.9 && Jpsi_m1_trgobj_pt != Jpsi_m2_trgobj_pt && abs(Jpsi_m2_eta) >= 0.000000 && abs(Jpsi_m2_eta) < 2.600000 && Jpsi_m2_pt >= 10.000000 && Jpsi_m2_pt < 12.000000'
p82
sg6
S'bin10_abs(Jpsi_m2_eta)_0p00To2p60_Jpsi_m2_pt_10p00To12p00'
p83
sg8
(dp84
g10
(dp85
g12
F12.0
sg13
F10.0
ssg14
(dp86
g12
F2.6
sg13
I0
sssg16
S'; 0.000 < abs(Jpsi_m2_eta) < 2.600; 10.000 < Jpsi_m2_pt < 12.000'
p87
sa(dp88
g4
S'Jpsi_m1_pt > 2.8 && Jpsi_m2_pt > 2.8 && abs(Jpsi_m1_eta) < 2.5 && abs(Jpsi_m2_eta) < 2.5 && Jpsi_fit_pt > 4.9 && Jpsi_m1_trgobj_pt != Jpsi_m2_trgobj_pt && abs(Jpsi_m2_eta) >= 0.000000 && abs(Jpsi_m2_eta) < 2.600000 && Jpsi_m2_pt >= 12.000000 && Jpsi_m2_pt < 40.000000'
p89
sg6
S'bin11_abs(Jpsi_m2_eta)_0p00To2p60_Jpsi_m2_pt_12p00To40p00'
p90
sg8
(dp91
g10
(dp92
g12
I40
sg13
F12.0
ssg14
(dp93
g12
F2.6
sg13
I0
sssg16
S'; 0.000 < abs(Jpsi_m2_eta) < 2.600; 12.000 < Jpsi_m2_pt < 40.000'
p94
sasg8
(lp95
g14
ag10
as.