(dp0
S'bins'
p1
(lp2
(dp3
S'cut'
p4
S'Jpsi_m1_pt > 2.8 && Jpsi_m2_pt > 2.8 && abs(Jpsi_m1_eta) < 2.5 && abs(Jpsi_m2_eta) < 2.5 && Jpsi_fit_pt > 4.9 && Jpsi_m1_trgobj_pt != Jpsi_m2_trgobj_pt && abs(Jpsi_m2_eta) >= 0.000000 && abs(Jpsi_m2_eta) < 0.250000 && Jpsi_m2_pt >= 2.500000 && Jpsi_m2_pt < 40.000000'
p5
sS'name'
p6
S'bin00_abs(Jpsi_m2_eta)_0p00To0p25_Jpsi_m2_pt_2p50To40p00'
p7
sS'vars'
p8
(dp9
S'Jpsi_m2_pt'
p10
(dp11
S'max'
p12
I40
sS'min'
p13
F2.5
ssS'abs(Jpsi_m2_eta)'
p14
(dp15
g12
F0.25
sg13
I0
sssS'title'
p16
S'; 0.000 < abs(Jpsi_m2_eta) < 0.250; 2.500 < Jpsi_m2_pt < 40.000'
p17
sa(dp18
g4
S'Jpsi_m1_pt > 2.8 && Jpsi_m2_pt > 2.8 && abs(Jpsi_m1_eta) < 2.5 && abs(Jpsi_m2_eta) < 2.5 && Jpsi_fit_pt > 4.9 && Jpsi_m1_trgobj_pt != Jpsi_m2_trgobj_pt && abs(Jpsi_m2_eta) >= 0.250000 && abs(Jpsi_m2_eta) < 0.500000 && Jpsi_m2_pt >= 2.500000 && Jpsi_m2_pt < 40.000000'
p19
sg6
S'bin01_abs(Jpsi_m2_eta)_0p25To0p50_Jpsi_m2_pt_2p50To40p00'
p20
sg8
(dp21
g10
(dp22
g12
I40
sg13
F2.5
ssg14
(dp23
g12
F0.5
sg13
F0.25
sssg16
S'; 0.250 < abs(Jpsi_m2_eta) < 0.500; 2.500 < Jpsi_m2_pt < 40.000'
p24
sa(dp25
g4
S'Jpsi_m1_pt > 2.8 && Jpsi_m2_pt > 2.8 && abs(Jpsi_m1_eta) < 2.5 && abs(Jpsi_m2_eta) < 2.5 && Jpsi_fit_pt > 4.9 && Jpsi_m1_trgobj_pt != Jpsi_m2_trgobj_pt && abs(Jpsi_m2_eta) >= 0.500000 && abs(Jpsi_m2_eta) < 0.750000 && Jpsi_m2_pt >= 2.500000 && Jpsi_m2_pt < 40.000000'
p26
sg6
S'bin02_abs(Jpsi_m2_eta)_0p50To0p75_Jpsi_m2_pt_2p50To40p00'
p27
sg8
(dp28
g10
(dp29
g12
I40
sg13
F2.5
ssg14
(dp30
g12
F0.75
sg13
F0.5
sssg16
S'; 0.500 < abs(Jpsi_m2_eta) < 0.750; 2.500 < Jpsi_m2_pt < 40.000'
p31
sa(dp32
g4
S'Jpsi_m1_pt > 2.8 && Jpsi_m2_pt > 2.8 && abs(Jpsi_m1_eta) < 2.5 && abs(Jpsi_m2_eta) < 2.5 && Jpsi_fit_pt > 4.9 && Jpsi_m1_trgobj_pt != Jpsi_m2_trgobj_pt && abs(Jpsi_m2_eta) >= 0.750000 && abs(Jpsi_m2_eta) < 1.000000 && Jpsi_m2_pt >= 2.500000 && Jpsi_m2_pt < 40.000000'
p33
sg6
S'bin03_abs(Jpsi_m2_eta)_0p75To1p00_Jpsi_m2_pt_2p50To40p00'
p34
sg8
(dp35
g10
(dp36
g12
I40
sg13
F2.5
ssg14
(dp37
g12
I1
sg13
F0.75
sssg16
S'; 0.750 < abs(Jpsi_m2_eta) < 1.000; 2.500 < Jpsi_m2_pt < 40.000'
p38
sa(dp39
g4
S'Jpsi_m1_pt > 2.8 && Jpsi_m2_pt > 2.8 && abs(Jpsi_m1_eta) < 2.5 && abs(Jpsi_m2_eta) < 2.5 && Jpsi_fit_pt > 4.9 && Jpsi_m1_trgobj_pt != Jpsi_m2_trgobj_pt && abs(Jpsi_m2_eta) >= 1.000000 && abs(Jpsi_m2_eta) < 1.250000 && Jpsi_m2_pt >= 2.500000 && Jpsi_m2_pt < 40.000000'
p40
sg6
S'bin04_abs(Jpsi_m2_eta)_1p00To1p25_Jpsi_m2_pt_2p50To40p00'
p41
sg8
(dp42
g10
(dp43
g12
I40
sg13
F2.5
ssg14
(dp44
g12
F1.25
sg13
I1
sssg16
S'; 1.000 < abs(Jpsi_m2_eta) < 1.250; 2.500 < Jpsi_m2_pt < 40.000'
p45
sa(dp46
g4
S'Jpsi_m1_pt > 2.8 && Jpsi_m2_pt > 2.8 && abs(Jpsi_m1_eta) < 2.5 && abs(Jpsi_m2_eta) < 2.5 && Jpsi_fit_pt > 4.9 && Jpsi_m1_trgobj_pt != Jpsi_m2_trgobj_pt && abs(Jpsi_m2_eta) >= 1.250000 && abs(Jpsi_m2_eta) < 1.500000 && Jpsi_m2_pt >= 2.500000 && Jpsi_m2_pt < 40.000000'
p47
sg6
S'bin05_abs(Jpsi_m2_eta)_1p25To1p50_Jpsi_m2_pt_2p50To40p00'
p48
sg8
(dp49
g10
(dp50
g12
I40
sg13
F2.5
ssg14
(dp51
g12
F1.5
sg13
F1.25
sssg16
S'; 1.250 < abs(Jpsi_m2_eta) < 1.500; 2.500 < Jpsi_m2_pt < 40.000'
p52
sa(dp53
g4
S'Jpsi_m1_pt > 2.8 && Jpsi_m2_pt > 2.8 && abs(Jpsi_m1_eta) < 2.5 && abs(Jpsi_m2_eta) < 2.5 && Jpsi_fit_pt > 4.9 && Jpsi_m1_trgobj_pt != Jpsi_m2_trgobj_pt && abs(Jpsi_m2_eta) >= 1.500000 && abs(Jpsi_m2_eta) < 1.750000 && Jpsi_m2_pt >= 2.500000 && Jpsi_m2_pt < 40.000000'
p54
sg6
S'bin06_abs(Jpsi_m2_eta)_1p50To1p75_Jpsi_m2_pt_2p50To40p00'
p55
sg8
(dp56
g10
(dp57
g12
I40
sg13
F2.5
ssg14
(dp58
g12
F1.75
sg13
F1.5
sssg16
S'; 1.500 < abs(Jpsi_m2_eta) < 1.750; 2.500 < Jpsi_m2_pt < 40.000'
p59
sa(dp60
g4
S'Jpsi_m1_pt > 2.8 && Jpsi_m2_pt > 2.8 && abs(Jpsi_m1_eta) < 2.5 && abs(Jpsi_m2_eta) < 2.5 && Jpsi_fit_pt > 4.9 && Jpsi_m1_trgobj_pt != Jpsi_m2_trgobj_pt && abs(Jpsi_m2_eta) >= 1.750000 && abs(Jpsi_m2_eta) < 2.000000 && Jpsi_m2_pt >= 2.500000 && Jpsi_m2_pt < 40.000000'
p61
sg6
S'bin07_abs(Jpsi_m2_eta)_1p75To2p00_Jpsi_m2_pt_2p50To40p00'
p62
sg8
(dp63
g10
(dp64
g12
I40
sg13
F2.5
ssg14
(dp65
g12
F2.0
sg13
F1.75
sssg16
S'; 1.750 < abs(Jpsi_m2_eta) < 2.000; 2.500 < Jpsi_m2_pt < 40.000'
p66
sa(dp67
g4
S'Jpsi_m1_pt > 2.8 && Jpsi_m2_pt > 2.8 && abs(Jpsi_m1_eta) < 2.5 && abs(Jpsi_m2_eta) < 2.5 && Jpsi_fit_pt > 4.9 && Jpsi_m1_trgobj_pt != Jpsi_m2_trgobj_pt && abs(Jpsi_m2_eta) >= 2.000000 && abs(Jpsi_m2_eta) < 2.250000 && Jpsi_m2_pt >= 2.500000 && Jpsi_m2_pt < 40.000000'
p68
sg6
S'bin08_abs(Jpsi_m2_eta)_2p00To2p25_Jpsi_m2_pt_2p50To40p00'
p69
sg8
(dp70
g10
(dp71
g12
I40
sg13
F2.5
ssg14
(dp72
g12
F2.25
sg13
F2.0
sssg16
S'; 2.000 < abs(Jpsi_m2_eta) < 2.250; 2.500 < Jpsi_m2_pt < 40.000'
p73
sa(dp74
g4
S'Jpsi_m1_pt > 2.8 && Jpsi_m2_pt > 2.8 && abs(Jpsi_m1_eta) < 2.5 && abs(Jpsi_m2_eta) < 2.5 && Jpsi_fit_pt > 4.9 && Jpsi_m1_trgobj_pt != Jpsi_m2_trgobj_pt && abs(Jpsi_m2_eta) >= 2.250000 && abs(Jpsi_m2_eta) < 2.600000 && Jpsi_m2_pt >= 2.500000 && Jpsi_m2_pt < 40.000000'
p75
sg6
S'bin09_abs(Jpsi_m2_eta)_2p25To2p60_Jpsi_m2_pt_2p50To40p00'
p76
sg8
(dp77
g10
(dp78
g12
I40
sg13
F2.5
ssg14
(dp79
g12
F2.6
sg13
F2.25
sssg16
S'; 2.250 < abs(Jpsi_m2_eta) < 2.600; 2.500 < Jpsi_m2_pt < 40.000'
p80
sasg8
(lp81
g14
ag10
as.